target datalayout = "e-m:e-p270:32:32-p271:32:32-p272:64:64-i64:64-i128:128-f80:128-n8:16:32:64-S128"
target triple = "x86_64-pc-linux-gnu"

@proto_mpls_pm_dlm = internal global i32 0, align 4
@proto_mpls_pm_ilm = internal global i32 0, align 4
@proto_mpls_pm_dm = internal global i32 0, align 4
@proto_mpls_pm_dlm_dm = internal global i32 0, align 4
@proto_mpls_pm_ilm_dm = internal global i32 0, align 4
@.str.93 = private unnamed_addr constant [19 x i8] c"pwach.channel_type\00", align 1

; Function Attrs: null_pointer_is_valid sspstrong uwtable
define hidden void @proto_reg_handoff_mpls_pm() #0 {
  %1 = alloca ptr, align 8
  %2 = alloca ptr, align 8
  %3 = alloca ptr, align 8
  %4 = alloca ptr, align 8
  %5 = alloca ptr, align 8
  call void @llvm.lifetime.start.p0(i64 8, ptr %1) #3
  call void @llvm.lifetime.start.p0(i64 8, ptr %2) #3
  call void @llvm.lifetime.start.p0(i64 8, ptr %3) #3
  call void @llvm.lifetime.start.p0(i64 8, ptr %4) #3
  call void @llvm.lifetime.start.p0(i64 8, ptr %5) #3
  %6 = load i32, ptr @proto_mpls_pm_dlm, align 4
  %7 = call ptr @create_dissector_handle(ptr noundef @dissect_mpls_pm_dlm, i32 noundef %6)
  store ptr %7, ptr %1, align 8
  %8 = load ptr, ptr %1, align 8
  call void @dissector_add_uint(ptr noundef @.str.93, i32 noundef 10, ptr noundef %8)
  %9 = load i32, ptr @proto_mpls_pm_ilm, align 4
  %10 = call ptr @create_dissector_handle(ptr noundef @dissect_mpls_pm_ilm, i32 noundef %9)
  store ptr %10, ptr %2, align 8
  %11 = load ptr, ptr %2, align 8
  call void @dissector_add_uint(ptr noundef @.str.93, i32 noundef 11, ptr noundef %11)
  %12 = load i32, ptr @proto_mpls_pm_dm, align 4
  %13 = call ptr @create_dissector_handle(ptr noundef @dissect_mpls_pm_delay, i32 noundef %12)
  store ptr %13, ptr %3, align 8
  %14 = load ptr, ptr %3, align 8
  call void @dissector_add_uint(ptr noundef @.str.93, i32 noundef 12, ptr noundef %14)
  %15 = load i32, ptr @proto_mpls_pm_dlm_dm, align 4
  %16 = call ptr @create_dissector_handle(ptr noundef @dissect_mpls_pm_dlm_dm, i32 noundef %15)
  store ptr %16, ptr %4, align 8
  %17 = load ptr, ptr %4, align 8
  call void @dissector_add_uint(ptr noundef @.str.93, i32 noundef 13, ptr noundef %17)
  %18 = load i32, ptr @proto_mpls_pm_ilm_dm, align 4
  %19 = call ptr @create_dissector_handle(ptr noundef @dissect_mpls_pm_ilm_dm, i32 noundef %18)
  store ptr %19, ptr %5, align 8
  %20 = load ptr, ptr %5, align 8
  call void @dissector_add_uint(ptr noundef @.str.93, i32 noundef 14, ptr noundef %20)
  call void @llvm.lifetime.end.p0(i64 8, ptr %5) #3
  call void @llvm.lifetime.end.p0(i64 8, ptr %4) #3
  call void @llvm.lifetime.end.p0(i64 8, ptr %3) #3
  call void @llvm.lifetime.end.p0(i64 8, ptr %2) #3
  call void @llvm.lifetime.end.p0(i64 8, ptr %1) #3
  ret void
}