; Function Attrs: null_pointer_is_valid sspstrong uwtable
define hidden void @proto_reg_handoff_mpls_pm() local_unnamed_addr #0 {
  %1 = load i32, ptr @proto_mpls_pm_dlm, align 4
  %2 = tail call ptr @create_dissector_handle(ptr noundef nonnull @dissect_mpls_pm_dlm, i32 noundef %1)
  tail call void @dissector_add_uint(ptr noundef nonnull @.str.93, i32 noundef 10, ptr noundef %2)
  %3 = load i32, ptr @proto_mpls_pm_ilm, align 4
  %4 = tail call ptr @create_dissector_handle(ptr noundef nonnull @dissect_mpls_pm_ilm, i32 noundef %3)
  tail call void @dissector_add_uint(ptr noundef nonnull @.str.93, i32 noundef 11, ptr noundef %4)
  %5 = load i32, ptr @proto_mpls_pm_dm, align 4
  %6 = tail call ptr @create_dissector_handle(ptr noundef nonnull @dissect_mpls_pm_delay, i32 noundef %5)
  tail call void @dissector_add_uint(ptr noundef nonnull @.str.93, i32 noundef 12, ptr noundef %6)
  %7 = load i32, ptr @proto_mpls_pm_dlm_dm, align 4
  %8 = tail call ptr @create_dissector_handle(ptr noundef nonnull @dissect_mpls_pm_dlm_dm, i32 noundef %7)
  tail call void @dissector_add_uint(ptr noundef nonnull @.str.93, i32 noundef 13, ptr noundef %8)
  %9 = load i32, ptr @proto_mpls_pm_ilm_dm, align 4
  %10 = tail call ptr @create_dissector_handle(ptr noundef nonnull @dissect_mpls_pm_ilm_dm, i32 noundef %9)
  tail call void @dissector_add_uint(ptr noundef nonnull @.str.93, i32 noundef 14, ptr noundef %10)
  ret void
}